(lp0
S'poi'
p1
aS'salary'
p2
aS'sort_score'
p3
aS'deferral_payments'
p4
aS'long_term_incentive'
p5
aS'exercised_stock_options'
p6
aS'bonus'
p7
aS'restricted_stock_deferred'
p8
aS'total_stock_value'
p9
aS'expenses'
p10
aS'loan_advances'
p11
aS'from_messages'
p12
aS'to_messages'
p13
aS'deferred_income'
p14
aS'nan_number'
p15
aS'director_fees'
p16
a.